target datalayout = "e-m:e-p270:32:32-p271:32:32-p272:64:64-i64:64-i128:128-f80:128-n8:16:32:64-S128"
target triple = "x86_64-pc-linux-gnu"

%struct.curl_mimepart = type { ptr, ptr, i32, i32, ptr, ptr, ptr, ptr, ptr, ptr, ptr, ptr, ptr, ptr, ptr, i64, %struct.mime_state, ptr, %struct.mime_encoder_state, i64 }
%struct.mime_state = type { i32, ptr, i64 }
%struct.mime_encoder_state = type { i64, i64, i64, [256 x i8] }

@Curl_cfree = external global ptr, align 8

; Function Attrs: nounwind uwtable
define internal void @mime_file_free(ptr noundef %0) #0 {
  %2 = alloca ptr, align 8
  %3 = alloca ptr, align 8
  store ptr %0, ptr %2, align 8, !tbaa !22
  call void @llvm.lifetime.start.p0(i64 8, ptr %3) #8
  %4 = load ptr, ptr %2, align 8, !tbaa !22
  store ptr %4, ptr %3, align 8, !tbaa !4
  %5 = load ptr, ptr %3, align 8, !tbaa !4
  %6 = getelementptr inbounds nuw %struct.curl_mimepart, ptr %5, i32 0, i32 9
  %7 = load ptr, ptr %6, align 8, !tbaa !31
  %8 = icmp ne ptr %7, null
  br i1 %8, label %9, label %16

9:                                                ; preds = %1
  %10 = load ptr, ptr %3, align 8, !tbaa !4
  %11 = getelementptr inbounds nuw %struct.curl_mimepart, ptr %10, i32 0, i32 9
  %12 = load ptr, ptr %11, align 8, !tbaa !31
  %13 = call i32 @fclose(ptr noundef %12)
  %14 = load ptr, ptr %3, align 8, !tbaa !4
  %15 = getelementptr inbounds nuw %struct.curl_mimepart, ptr %14, i32 0, i32 9
  store ptr null, ptr %15, align 8, !tbaa !31
  br label %16

16:                                               ; preds = %9, %1
  br label %17

17:                                               ; preds = %16
  %18 = load ptr, ptr @Curl_cfree, align 8, !tbaa !22
  %19 = load ptr, ptr %3, align 8, !tbaa !4
  %20 = getelementptr inbounds nuw %struct.curl_mimepart, ptr %19, i32 0, i32 4
  %21 = load ptr, ptr %20, align 8, !tbaa !30
  call void %18(ptr noundef %21)
  %22 = load ptr, ptr %3, align 8, !tbaa !4
  %23 = getelementptr inbounds nuw %struct.curl_mimepart, ptr %22, i32 0, i32 4
  store ptr null, ptr %23, align 8, !tbaa !30
  br label %24

24:                                               ; preds = %17
  br label %25

25:                                               ; preds = %24
  call void @llvm.lifetime.end.p0(i64 8, ptr %3) #8
  ret void
}