; Function Attrs: nounwind uwtable
define internal void @mime_file_free(ptr noundef captures(none) %0) #0 {
  %2 = getelementptr inbounds nuw i8, ptr %0, i64 64
  %3 = load ptr, ptr %2, align 8, !tbaa !21
  %.not = icmp eq ptr %3, null
  br i1 %.not, label %6, label %4

4:                                                ; preds = %1
  %5 = tail call i32 @fclose(ptr noundef nonnull %3)
  store ptr null, ptr %2, align 8, !tbaa !21
  br label %6

6:                                                ; preds = %1, %4
  %7 = load ptr, ptr @Curl_cfree, align 8, !tbaa !29
  %8 = getelementptr inbounds nuw i8, ptr %0, i64 24
  %9 = load ptr, ptr %8, align 8, !tbaa !20
  tail call void %7(ptr noundef %9) #18
  store ptr null, ptr %8, align 8, !tbaa !20
  ret void
}